target datalayout = "e-m:e-p270:32:32-p271:32:32-p272:64:64-i64:64-i128:128-f80:128-n8:16:32:64-S128"
target triple = "x86_64-pc-linux-gnu"

@.str.2077 = private unnamed_addr constant [1 x i8] zeroinitializer, align 1
@.str.2493 = private unnamed_addr constant [34 x i8] c"Invalid Length: Requires 32 bytes\00", align 1
@.str.2494 = private unnamed_addr constant [3 x i8] c"%d\00", align 1
@.str.2495 = private unnamed_addr constant [4 x i8] c",%d\00", align 1
@.str.2496 = private unnamed_addr constant [7 x i8] c"-%d,%d\00", align 1
@.str.2497 = private unnamed_addr constant [4 x i8] c"-%d\00", align 1
@.str.2498 = private unnamed_addr constant [8 x i8] c"<Empty>\00", align 1

; Function Attrs: alwaysinline nounwind
define internal ptr @memset.inline(ptr %0, i32 %1, i64 %2) #5 {
  %4 = alloca ptr, align 8
  %5 = alloca i32, align 4
  %6 = alloca i64, align 8
  store ptr %0, ptr %4, align 8
  store i32 %1, ptr %5, align 4
  store i64 %2, ptr %6, align 8
  %7 = load ptr, ptr %4, align 8
  %8 = load i32, ptr %5, align 4
  %9 = load i64, ptr %6, align 8
  %10 = load ptr, ptr %4, align 8
  %11 = call i64 @llvm.objectsize.i64.p0(ptr %10, i1 false, i1 true, i1 true)
  %12 = call ptr @__memset_chk(ptr noundef %7, i32 noundef %8, i64 noundef %9, i64 noundef %11) #7
  ret ptr %12
}

; Function Attrs: null_pointer_is_valid sspstrong uwtable
define internal ptr @opa_format_port_select_mask(ptr noundef %0, i32 noundef %1, ptr noundef %2, ptr noundef %3) #0 {
  %5 = alloca ptr, align 8
  %6 = alloca ptr, align 8
  %7 = alloca i32, align 4
  %8 = alloca ptr, align 8
  %9 = alloca ptr, align 8
  %10 = alloca i32, align 4
  %11 = alloca i32, align 4
  %12 = alloca i32, align 4
  %13 = alloca i32, align 4
  %14 = alloca i32, align 4
  %15 = alloca i32, align 4
  %16 = alloca i64, align 8
  %17 = alloca [4 x i64], align 16
  %18 = alloca ptr, align 8
  %19 = alloca ptr, align 8
  %20 = alloca i32, align 4
  store ptr %0, ptr %6, align 8
  store i32 %1, ptr %7, align 4
  store ptr %2, ptr %8, align 8
  store ptr %3, ptr %9, align 8
  call void @llvm.lifetime.start.p0(i64 4, ptr %10) #7
  call void @llvm.lifetime.start.p0(i64 4, ptr %11) #7
  call void @llvm.lifetime.start.p0(i64 4, ptr %12) #7
  call void @llvm.lifetime.start.p0(i64 4, ptr %13) #7
  store i32 -1, ptr %13, align 4
  call void @llvm.lifetime.start.p0(i64 4, ptr %14) #7
  store i32 0, ptr %14, align 4
  call void @llvm.lifetime.start.p0(i64 4, ptr %15) #7
  store i32 0, ptr %15, align 4
  call void @llvm.lifetime.start.p0(i64 8, ptr %16) #7
  call void @llvm.lifetime.start.p0(i64 32, ptr %17) #7
  call void @llvm.lifetime.start.p0(i64 8, ptr %18) #7
  store ptr null, ptr %18, align 8
  call void @llvm.lifetime.start.p0(i64 8, ptr %19) #7
  store ptr null, ptr %19, align 8
  %21 = load ptr, ptr %6, align 8
  %22 = load i32, ptr %7, align 4
  %23 = call zeroext i1 @tvb_bytes_exist(ptr noundef %21, i32 noundef %22, i32 noundef 32)
  br i1 %23, label %25, label %24

24:                                               ; preds = %4
  store ptr @.str.2493, ptr %5, align 8
  store i32 1, ptr %20, align 4
  br label %163

25:                                               ; preds = %4
  %26 = load ptr, ptr %6, align 8
  %27 = load i32, ptr %7, align 4
  %28 = call i64 @tvb_get_ntoh64(ptr noundef %26, i32 noundef %27)
  %29 = getelementptr [4 x i64], ptr %17, i64 0, i64 0
  store i64 %28, ptr %29, align 16
  %30 = load ptr, ptr %6, align 8
  %31 = load i32, ptr %7, align 4
  %32 = add i32 %31, 8
  %33 = call i64 @tvb_get_ntoh64(ptr noundef %30, i32 noundef %32)
  %34 = getelementptr [4 x i64], ptr %17, i64 0, i64 1
  store i64 %33, ptr %34, align 8
  %35 = load ptr, ptr %6, align 8
  %36 = load i32, ptr %7, align 4
  %37 = add i32 %36, 16
  %38 = call i64 @tvb_get_ntoh64(ptr noundef %35, i32 noundef %37)
  %39 = getelementptr [4 x i64], ptr %17, i64 0, i64 2
  store i64 %38, ptr %39, align 16
  %40 = load ptr, ptr %6, align 8
  %41 = load i32, ptr %7, align 4
  %42 = add i32 %41, 24
  %43 = call i64 @tvb_get_ntoh64(ptr noundef %40, i32 noundef %42)
  %44 = getelementptr [4 x i64], ptr %17, i64 0, i64 3
  store i64 %43, ptr %44, align 8
  %45 = call ptr @wmem_packet_scope()
  %46 = call noalias ptr @wmem_strbuf_new(ptr noundef %45, ptr noundef @.str.2077)
  store ptr %46, ptr %18, align 8
  %47 = load ptr, ptr %8, align 8
  %48 = icmp ne ptr %47, null
  br i1 %48, label %49, label %54

49:                                               ; preds = %25
  %50 = call ptr @wmem_packet_scope()
  %51 = call noalias ptr @wmem_alloc(ptr noundef %50, i64 noundef 256) #8
  store ptr %51, ptr %19, align 8
  %52 = load ptr, ptr %19, align 8
  %53 = call ptr @memset.inline(ptr noundef %52, i32 noundef 255, i64 noundef 256) #7
  br label %54

54:                                               ; preds = %49, %25
  store i32 0, ptr %10, align 4
  br label %55

55:                                               ; preds = %128, %54
  %56 = load i32, ptr %10, align 4
  %57 = icmp slt i32 %56, 4
  br i1 %57, label %58, label %131

58:                                               ; preds = %55
  %59 = load i32, ptr %10, align 4
  %60 = sub i32 3, %59
  %61 = sext i32 %60 to i64
  %62 = getelementptr [4 x i64], ptr %17, i64 0, i64 %61
  %63 = load i64, ptr %62, align 8
  store i64 %63, ptr %16, align 8
  store i32 0, ptr %11, align 4
  br label %64

64:                                               ; preds = %122, %58
  %65 = load i64, ptr %16, align 8
  %66 = icmp ne i64 %65, 0
  br i1 %66, label %67, label %70

67:                                               ; preds = %64
  %68 = load i32, ptr %11, align 4
  %69 = icmp slt i32 %68, 64
  br label %70

70:                                               ; preds = %67, %64
  %71 = phi i1 [ false, %64 ], [ %69, %67 ]
  br i1 %71, label %72, label %127

72:                                               ; preds = %70
  %73 = load i64, ptr %16, align 8
  %74 = and i64 %73, 1
  %75 = icmp eq i64 %74, 0
  br i1 %75, label %76, label %77

76:                                               ; preds = %72
  br label %122

77:                                               ; preds = %72
  %78 = load i32, ptr %10, align 4
  %79 = mul i32 %78, 64
  %80 = load i32, ptr %11, align 4
  %81 = add i32 %79, %80
  store i32 %81, ptr %12, align 4
  %82 = load ptr, ptr %19, align 8
  %83 = icmp ne ptr %82, null
  br i1 %83, label %84, label %91

84:                                               ; preds = %77
  %85 = load i32, ptr %12, align 4
  %86 = trunc i32 %85 to i8
  %87 = load ptr, ptr %19, align 8
  %88 = load i32, ptr %15, align 4
  %89 = sext i32 %88 to i64
  %90 = getelementptr i8, ptr %87, i64 %89
  store i8 %86, ptr %90, align 1
  br label %91

91:                                               ; preds = %84, %77
  %92 = load i32, ptr %13, align 4
  %93 = icmp eq i32 %92, -1
  br i1 %93, label %94, label %98

94:                                               ; preds = %91
  %95 = load ptr, ptr %18, align 8
  %96 = load i32, ptr %12, align 4
  call void (ptr, ptr, ...) @wmem_strbuf_append_printf(ptr noundef %95, ptr noundef @.str.2494, i32 noundef %96)
  %97 = load i32, ptr %12, align 4
  store i32 %97, ptr %14, align 4
  store i32 %97, ptr %13, align 4
  br label %119

98:                                               ; preds = %91
  %99 = load i32, ptr %12, align 4
  %100 = load i32, ptr %13, align 4
  %101 = sub i32 %99, %100
  %102 = icmp sgt i32 %101, 1
  br i1 %102, label %103, label %116

103:                                              ; preds = %98
  %104 = load i32, ptr %14, align 4
  %105 = load i32, ptr %13, align 4
  %106 = icmp eq i32 %104, %105
  br i1 %106, label %107, label %110

107:                                              ; preds = %103
  %108 = load ptr, ptr %18, align 8
  %109 = load i32, ptr %12, align 4
  call void (ptr, ptr, ...) @wmem_strbuf_append_printf(ptr noundef %108, ptr noundef @.str.2495, i32 noundef %109)
  br label %114

110:                                              ; preds = %103
  %111 = load ptr, ptr %18, align 8
  %112 = load i32, ptr %13, align 4
  %113 = load i32, ptr %12, align 4
  call void (ptr, ptr, ...) @wmem_strbuf_append_printf(ptr noundef %111, ptr noundef @.str.2496, i32 noundef %112, i32 noundef %113)
  br label %114

114:                                              ; preds = %110, %107
  %115 = load i32, ptr %12, align 4
  store i32 %115, ptr %14, align 4
  store i32 %115, ptr %13, align 4
  br label %118

116:                                              ; preds = %98
  %117 = load i32, ptr %12, align 4
  store i32 %117, ptr %13, align 4
  br label %118

118:                                              ; preds = %116, %114
  br label %119

119:                                              ; preds = %118, %94
  %120 = load i32, ptr %15, align 4
  %121 = add i32 %120, 1
  store i32 %121, ptr %15, align 4
  br label %122

122:                                              ; preds = %119, %76
  %123 = load i32, ptr %11, align 4
  %124 = add i32 %123, 1
  store i32 %124, ptr %11, align 4
  %125 = load i64, ptr %16, align 8
  %126 = lshr i64 %125, 1
  store i64 %126, ptr %16, align 8
  br label %64, !llvm.loop !76

127:                                              ; preds = %70
  br label %128

128:                                              ; preds = %127
  %129 = load i32, ptr %10, align 4
  %130 = add i32 %129, 1
  store i32 %130, ptr %10, align 4
  br label %55, !llvm.loop !77

131:                                              ; preds = %55
  %132 = load i32, ptr %14, align 4
  %133 = load i32, ptr %13, align 4
  %134 = icmp ne i32 %132, %133
  br i1 %134, label %135, label %141

135:                                              ; preds = %131
  %136 = load i32, ptr %13, align 4
  %137 = icmp ne i32 %136, -1
  br i1 %137, label %138, label %141

138:                                              ; preds = %135
  %139 = load ptr, ptr %18, align 8
  %140 = load i32, ptr %13, align 4
  call void (ptr, ptr, ...) @wmem_strbuf_append_printf(ptr noundef %139, ptr noundef @.str.2497, i32 noundef %140)
  br label %141

141:                                              ; preds = %138, %135, %131
  %142 = load ptr, ptr %18, align 8
  %143 = call i64 @wmem_strbuf_get_len(ptr noundef %142)
  %144 = icmp eq i64 %143, 0
  br i1 %144, label %145, label %147

145:                                              ; preds = %141
  %146 = load ptr, ptr %18, align 8
  call void @wmem_strbuf_append(ptr noundef %146, ptr noundef @.str.2498)
  br label %147

147:                                              ; preds = %145, %141
  %148 = load ptr, ptr %9, align 8
  %149 = icmp ne ptr %148, null
  br i1 %149, label %150, label %154

150:                                              ; preds = %147
  %151 = load i32, ptr %15, align 4
  %152 = trunc i32 %151 to i8
  %153 = load ptr, ptr %9, align 8
  store i8 %152, ptr %153, align 1
  br label %154

154:                                              ; preds = %150, %147
  %155 = load ptr, ptr %8, align 8
  %156 = icmp ne ptr %155, null
  br i1 %156, label %157, label %160

157:                                              ; preds = %154
  %158 = load ptr, ptr %19, align 8
  %159 = load ptr, ptr %8, align 8
  store ptr %158, ptr %159, align 8
  br label %160

160:                                              ; preds = %157, %154
  %161 = load ptr, ptr %18, align 8
  %162 = call ptr @wmem_strbuf_finalize(ptr noundef %161)
  store ptr %162, ptr %5, align 8
  store i32 1, ptr %20, align 4
  br label %163

163:                                              ; preds = %160, %24
  call void @llvm.lifetime.end.p0(i64 8, ptr %19) #7
  call void @llvm.lifetime.end.p0(i64 8, ptr %18) #7
  call void @llvm.lifetime.end.p0(i64 32, ptr %17) #7
  call void @llvm.lifetime.end.p0(i64 8, ptr %16) #7
  call void @llvm.lifetime.end.p0(i64 4, ptr %15) #7
  call void @llvm.lifetime.end.p0(i64 4, ptr %14) #7
  call void @llvm.lifetime.end.p0(i64 4, ptr %13) #7
  call void @llvm.lifetime.end.p0(i64 4, ptr %12) #7
  call void @llvm.lifetime.end.p0(i64 4, ptr %11) #7
  call void @llvm.lifetime.end.p0(i64 4, ptr %10) #7
  %164 = load ptr, ptr %5, align 8
  ret ptr %164
}