; Function Attrs: null_pointer_is_valid sspstrong uwtable
define internal fastcc ptr @opa_format_port_select_mask(ptr noundef %0, i32 noundef %1) unnamed_addr #0 {
  %3 = alloca [4 x i64], align 16
  call void @llvm.lifetime.start.p0(i64 32, ptr nonnull %3) #5
  %4 = tail call zeroext i1 @tvb_bytes_exist(ptr noundef %0, i32 noundef %1, i32 noundef 32)
  br i1 %4, label %5, label %53

5:                                                ; preds = %2
  %6 = tail call i64 @tvb_get_ntoh64(ptr noundef %0, i32 noundef %1)
  store i64 %6, ptr %3, align 16
  %7 = add i32 %1, 8
  %8 = tail call i64 @tvb_get_ntoh64(ptr noundef %0, i32 noundef %7)
  %9 = getelementptr inbounds nuw i8, ptr %3, i64 8
  store i64 %8, ptr %9, align 8
  %10 = add i32 %1, 16
  %11 = tail call i64 @tvb_get_ntoh64(ptr noundef %0, i32 noundef %10)
  %12 = getelementptr inbounds nuw i8, ptr %3, i64 16
  store i64 %11, ptr %12, align 16
  %13 = add i32 %1, 24
  %14 = tail call i64 @tvb_get_ntoh64(ptr noundef %0, i32 noundef %13)
  %15 = getelementptr inbounds nuw i8, ptr %3, i64 24
  store i64 %14, ptr %15, align 8
  %16 = tail call ptr @wmem_packet_scope()
  %17 = tail call noalias ptr @wmem_strbuf_new(ptr noundef %16, ptr noundef nonnull @.str.2077)
  br label %18

18:                                               ; preds = %5, %._crit_edge
  %indvars.iv = phi i64 [ 0, %5 ], [ %indvars.iv.next, %._crit_edge ]
  %.05910 = phi i32 [ 0, %5 ], [ %.160.lcssa, %._crit_edge ]
  %.0629 = phi i32 [ -1, %5 ], [ %.163.lcssa, %._crit_edge ]
  %19 = sub nuw nsw i64 3, %indvars.iv
  %20 = getelementptr [4 x i64], ptr %3, i64 0, i64 %19
  %21 = load i64, ptr %20, align 8
  %.not = icmp eq i64 %21, 0
  br i1 %.not, label %._crit_edge, label %.lr.ph

.lr.ph:                                           ; preds = %18
  %indvars.iv.tr = trunc i64 %indvars.iv to i32
  %22 = shl i32 %indvars.iv.tr, 6
  br label %23

23:                                               ; preds = %.lr.ph, %37
  %.0575 = phi i64 [ %21, %.lr.ph ], [ %39, %37 ]
  %.1603 = phi i32 [ %.05910, %.lr.ph ], [ %.261, %37 ]
  %.1632 = phi i32 [ %.0629, %.lr.ph ], [ %.264, %37 ]
  %.0671 = phi i32 [ 0, %.lr.ph ], [ %38, %37 ]
  %24 = and i64 %.0575, 1
  %25 = icmp eq i64 %24, 0
  br i1 %25, label %37, label %26

26:                                               ; preds = %23
  %27 = add nuw nsw i32 %.0671, %22
  %28 = icmp eq i32 %.1632, -1
  br i1 %28, label %29, label %30

29:                                               ; preds = %26
  tail call void (ptr, ptr, ...) @wmem_strbuf_append_printf(ptr noundef %17, ptr noundef nonnull @.str.2494, i32 noundef %27)
  br label %37

30:                                               ; preds = %26
  %31 = sub i32 %27, %.1632
  %32 = icmp sgt i32 %31, 1
  br i1 %32, label %33, label %37

33:                                               ; preds = %30
  %34 = icmp eq i32 %.1603, %.1632
  br i1 %34, label %35, label %36

35:                                               ; preds = %33
  tail call void (ptr, ptr, ...) @wmem_strbuf_append_printf(ptr noundef %17, ptr noundef nonnull @.str.2495, i32 noundef %27)
  br label %37

36:                                               ; preds = %33
  tail call void (ptr, ptr, ...) @wmem_strbuf_append_printf(ptr noundef %17, ptr noundef nonnull @.str.2496, i32 noundef %.1632, i32 noundef %27)
  br label %37

37:                                               ; preds = %29, %36, %35, %30, %23
  %.264 = phi i32 [ %.1632, %23 ], [ %27, %30 ], [ %27, %35 ], [ %27, %36 ], [ %27, %29 ]
  %.261 = phi i32 [ %.1603, %23 ], [ %.1603, %30 ], [ %27, %35 ], [ %27, %36 ], [ %27, %29 ]
  %38 = add nuw nsw i32 %.0671, 1
  %39 = lshr i64 %.0575, 1
  %40 = icmp ugt i64 %.0575, 1
  %41 = icmp samesign ult i32 %.0671, 63
  %42 = select i1 %40, i1 %41, i1 false
  br i1 %42, label %23, label %._crit_edge, !llvm.loop !76

._crit_edge:                                      ; preds = %37, %18
  %.163.lcssa = phi i32 [ %.0629, %18 ], [ %.264, %37 ]
  %.160.lcssa = phi i32 [ %.05910, %18 ], [ %.261, %37 ]
  %indvars.iv.next = add nuw nsw i64 %indvars.iv, 1
  %exitcond.not = icmp eq i64 %indvars.iv.next, 4
  br i1 %exitcond.not, label %43, label %18, !llvm.loop !77

43:                                               ; preds = %._crit_edge
  %44 = icmp ne i32 %.160.lcssa, %.163.lcssa
  %45 = icmp ne i32 %.163.lcssa, -1
  %or.cond = and i1 %45, %44
  br i1 %or.cond, label %46, label %47

46:                                               ; preds = %43
  tail call void (ptr, ptr, ...) @wmem_strbuf_append_printf(ptr noundef %17, ptr noundef nonnull @.str.2497, i32 noundef %.163.lcssa)
  br label %47

47:                                               ; preds = %46, %43
  %48 = tail call i64 @wmem_strbuf_get_len(ptr noundef %17)
  %49 = icmp eq i64 %48, 0
  br i1 %49, label %50, label %51

50:                                               ; preds = %47
  tail call void @wmem_strbuf_append(ptr noundef %17, ptr noundef nonnull @.str.2498)
  br label %51

51:                                               ; preds = %50, %47
  %52 = tail call ptr @wmem_strbuf_finalize(ptr noundef %17)
  br label %53

53:                                               ; preds = %2, %51
  %.066 = phi ptr [ %52, %51 ], [ @.str.2493, %2 ]
  call void @llvm.lifetime.end.p0(i64 32, ptr nonnull %3) #5
  ret ptr %.066
}